target datalayout = "e-m:e-p270:32:32-p271:32:32-p272:64:64-i64:64-i128:128-f80:128-n8:16:32:64-S128"
target triple = "x86_64-unknown-linux-gnu"

%"class.sat::literal" = type { i32 }
%"struct.sat::npn3_finder::quaternary" = type { %"class.sat::literal", %"class.sat::literal", %"class.sat::literal", %"class.sat::literal", ptr }

@_ZN3satL12null_literalE = internal global %"class.sat::literal" zeroinitializer, align 4

; Function Attrs: mustprogress nounwind uwtable
define hidden void @_ZN3sat11npn3_finder10quaternaryC2Ev(ptr noundef nonnull align 8 dereferenceable(24) %this) unnamed_addr #4 align 2 {
entry:
  %this.addr = alloca ptr, align 8
  store ptr %this, ptr %this.addr, align 8
  %this1 = load ptr, ptr %this.addr, align 8
  %w = getelementptr inbounds %"struct.sat::npn3_finder::quaternary", ptr %this1, i32 0, i32 0
  call void @llvm.memcpy.p0.p0.i64(ptr align 8 %w, ptr align 4 @_ZN3satL12null_literalE, i64 4, i1 false)
  %x = getelementptr inbounds %"struct.sat::npn3_finder::quaternary", ptr %this1, i32 0, i32 1
  call void @llvm.memcpy.p0.p0.i64(ptr align 4 %x, ptr align 4 @_ZN3satL12null_literalE, i64 4, i1 false)
  %y = getelementptr inbounds %"struct.sat::npn3_finder::quaternary", ptr %this1, i32 0, i32 2
  call void @llvm.memcpy.p0.p0.i64(ptr align 8 %y, ptr align 4 @_ZN3satL12null_literalE, i64 4, i1 false)
  %z = getelementptr inbounds %"struct.sat::npn3_finder::quaternary", ptr %this1, i32 0, i32 3
  call void @llvm.memcpy.p0.p0.i64(ptr align 4 %z, ptr align 4 @_ZN3satL12null_literalE, i64 4, i1 false)
  %orig = getelementptr inbounds %"struct.sat::npn3_finder::quaternary", ptr %this1, i32 0, i32 4
  store ptr null, ptr %orig, align 8
  ret void
}