; Function Attrs: mustprogress nofree norecurse nosync nounwind willreturn memory(read, argmem: write, inaccessiblemem: none) uwtable
define hidden void @_ZN3sat11npn3_finder10quaternaryC2Ev(ptr nocapture noundef nonnull writeonly align 8 dereferenceable(24) %this) unnamed_addr #5 align 2 {
entry:
  %.b = load i1, ptr @_ZN3satL12null_literalE.0, align 4
  %0 = select i1 %.b, i32 -2, i32 0
  %1 = insertelement <4 x i32> poison, i32 %0, i64 0
  %2 = shufflevector <4 x i32> %1, <4 x i32> poison, <4 x i32> zeroinitializer
  store <4 x i32> %2, ptr %this, align 8
  %orig = getelementptr inbounds i8, ptr %this, i64 16
  store ptr null, ptr %orig, align 8
  ret void
}